ccopy_reg
_reconstructor
p1
(ccloudinit.sources.DataSourceNoCloud
DataSourceNoCloud
p2
c__builtin__
object
p3
NtRp4
(dp5
S'_network_eni'
p6
NsS'paths'
p7
g1
(ccloudinit.helpers
Paths
p8
g3
NtRp9
(dp10
S'run_dir'
p11
S'/run/cloud-init'
p12
sS'lookups'
p13
(dp14
S'cloud_config'
p15
S'cloud-config.txt'
p16
sS'userdata'
p17
S'user-data.txt.i'
p18
sS'vendordata'
p19
S'vendor-data.txt.i'
p20
sS'userdata_raw'
p21
S'user-data.txt'
p22
sS'boothooks'
p23
g23
sS'scripts'
p24
g24
sS'sem'
p25
g25
sS'data'
p26
g26
sS'vendor_scripts'
p27
S'scripts/vendor'
p28
sS'handlers'
p29
g29
sS'obj_pkl'
p30
S'obj.pkl'
p31
sS'vendordata_raw'
p32
S'vendor-data.txt'
p33
sS'instance_id'
p34
S'.instance-id'
p35
sS'vendor_cloud_config'
p36
S'vendor-cloud-config.txt'
p37
ssS'template_tpl'
p38
S'/etc/cloud/templates/%s.tmpl'
p39
sS'cfgs'
p40
(dp41
S'cloud_dir'
p42
S'/var/lib/cloud'
p43
sS'templates_dir'
p44
S'/etc/cloud/templates'
p45
ssS'cloud_dir'
p46
g43
sS'datasource'
p47
NsS'upstart_conf_d'
p48
NsS'boot_finished'
p49
S'/var/lib/cloud/instance/boot-finished'
p50
sS'instance_link'
p51
S'/var/lib/cloud/instance'
p52
sS'seed_dir'
p53
S'/var/lib/cloud/seed'
p54
sbsS'supported_seed_starts'
p55
(S'/'
S'file://'
tp56
sS'_network_config'
p57
NsS'sys_cfg'
p58
(dp59
S'paths'
p60
(dp61
S'cloud_dir'
p62
S'/var/lib/cloud'
p63
sS'templates_dir'
p64
S'/etc/cloud/templates'
p65
ssS'default_user'
p66
(dp67
S'shell'
p68
S'/bin/bash'
p69
sS'name'
p70
S'test'
p71
sS'sudo'
p72
(lp73
S'ALL=(ALL) NOPASSWD:ALL'
p74
asS'lock_passwd'
p75
I01
sS'gecos'
p76
S'Local Administrator'
p77
sS'groups'
p78
(lp79
S'wheel'
p80
aS'adm'
p81
aS'systemd-journal'
p82
assS'ssh_svcname'
p83
S'sshd'
p84
ssg17
(iemail.mime.multipart
MIMEMultipart
p85
(dp86
S'_headers'
p87
(lp88
(S'Content-Type'
p89
S'multipart/mixed; boundary="===============2534613241816882062=="'
tp90
a(S'MIME-Version'
p91
S'1.0'
p92
tp93
a(S'Number-Attachments'
p94
S'1'
tp95
asS'_payload'
p96
(lp97
(iemail.mime.base
MIMEBase
p98
(dp99
g87
(lp100
(g91
g92
tp101
a(S'Content-Type'
p102
S'text/cloud-config'
p103
tp104
a(S'Content-Disposition'
p105
S'attachment; filename="part-001"'
tp106
asg96
S'#cloud-config\nsystem_info:\n  default_user:\n    name: test\n    lock_passwd: true\n    gecos: Local Administrator\n    groups: [wheel, adm, systemd-journal]\n    sudo: ["ALL=(ALL) NOPASSWD:ALL"]\n    shell: /bin/bash\nruncmd:\n   - "echo root:moose | chpasswd" \n'
p107
sS'_charset'
p108
NsS'_default_type'
p109
S'text/plain'
p110
sS'preamble'
p111
NsS'defects'
p112
(lp113
sS'_unixfrom'
p114
NsS'epilogue'
p115
Nsbasg108
Nsg109
g110
sg111
Nsg112
(lp116
sg114
Nsg115
Nsbsg19
(iemail.mime.multipart
MIMEMultipart
p117
(dp118
g87
(lp119
(g89
S'multipart/mixed; boundary="===============2593779135091888483=="'
tp120
a(g91
g92
tp121
a(g94
S'1'
tp122
asg96
(lp123
(iemail.mime.base
MIMEBase
p124
(dp125
g87
(lp126
(g91
g92
tp127
a(g102
S'text/x-not-multipart'
tp128
a(g105
S'attachment; filename="part-001"'
tp129
asg96
S''
sg108
Nsg109
g110
sg111
Nsg112
(lp130
sg114
Nsg115
Nsbasg108
Nsg109
g110
sg111
Nsg112
(lp131
sg114
Nsg115
Nsbsg21
g107
sg32
S''
sS'dsmode'
p132
S'local'
p133
sS'seed'
p134
V/dev/sr0
p135
sS'ud_proc'
p136
g1
(ccloudinit.user_data
UserDataProcessor
p137
g3
NtRp138
(dp139
g7
g9
sS'ssl_details'
p140
(dp141
sbsS'seed_dirs'
p142
(lp143
S'/var/lib/cloud/seed/nocloud'
p144
aS'/var/lib/cloud/seed/nocloud-net'
p145
asg53
NsS'ds_cfg'
p146
(dp147
sS'distro'
p148
g1
(ccloudinit.distros.rhel
Distro
p149
g3
NtRp150
(dp151
S'osfamily'
p152
S'redhat'
p153
sS'name'
p154
S'rhel'
p155
sS'_runner'
p156
g1
(ccloudinit.helpers
Runners
p157
g3
NtRp158
(dp159
g7
g1
(g8
g3
NtRp160
(dp161
g11
g12
sg13
(dp162
g15
g16
sg17
g18
sg19
g20
sg21
g22
sg23
g23
sg24
g24
sg25
g25
sg26
g26
sg27
g28
sg29
g29
sg30
g31
sg32
g33
sg34
g35
sg36
g37
ssg38
S'/etc/cloud/templates/%s.tmpl'
p163
sg40
(dp164
g62
g63
sg64
g65
ssg46
g63
sg47
g4
sg48
Nsg49
S'/var/lib/cloud/instance/boot-finished'
p165
sg51
S'/var/lib/cloud/instance'
p166
sg53
S'/var/lib/cloud/seed'
p167
sbsS'sems'
p168
(dp169
sbsS'_cfg'
p170
g59
sS'_paths'
p171
g160
sS'_net_renderer'
p172
g1
(ccloudinit.net.sysconfig
Renderer
p173
g3
NtRp174
(dp175
S'sysconf_dir'
p176
S'etc/sysconfig'
p177
sS'netrules_path'
p178
S'etc/udev/rules.d/70-persistent-net.rules'
p179
sS'networkmanager_conf_path'
p180
S'etc/NetworkManager/conf.d/99-cloud-init.conf'
p181
sS'dns_path'
p182
S'etc/resolv.conf'
p183
sbsbsS'metadata'
p184
(dp185
S'dsmode'
p186
g133
sS'local-hostname'
p187
S'test1.compute.estate'
p188
sS'instance-id'
p189
S'iid-local01'
p190
sS'public-keys'
p191
(lp192
S'ssh-rsa AAAAB3NzaC1yc2EAAAABIwAAAQEAxOnS0K1/YsHERk1y3I2SKxT2fHM3IJzYtoTpxbRWz2zKP8Zi1P1jLBYoj86EI8GV1KpQN/gi/OHcPiJ1t9vXHlvNsJjX+JOe5/vGWAPk6xG+Pa/jHP6vUQ8FJB1X3S0UcKaPUzkILXsX+Pqs7eIjOGstVcRZ/vLYKzgvnDqSEpwjn5orpViSHFdZlozHX81iMsc5InMbsP2vRyUnSdyRhRV/5fQr/pUV2I4DRIjs+aocyfBi0EkhMP2h6OoXt0rBAJg++QVtjM9B6VoVsV4zRacrAJuWZ3x8OZa56SS7Xe04mtSizeWGAeptECfDkAdJAa8hF1p9yvw8cJfEzze7Uw== steve@zoot'
p193
assb.